Certificate:
    Data:
        Version: 1 (0x0)
        Serial Number: 1 (0x1)
    Signature Algorithm: md5WithRSAEncryption
        Issuer: C=FR, ST=Ile de France, L=Paris, O=MSR-INRIA Joint Lab, OU=Security Group, CN=needham.inria.fr/emailAddress=root@needham.inria.fr
        Validity
            Not Before: Oct  8 14:30:42 2012 GMT
            Not After : Dec 25 14:30:42 2020 GMT
        Subject: C=FR, ST=Ile de France, L=Paris, O=MSR-INRIA Joint Lab, OU=Certificate 0x01, CN=cert-01.needham.inria.fr/emailAddress=root@neehdam.inria.fr
        Subject Public Key Info:
            Public Key Algorithm: rsaEncryption
                Public-Key: (1024 bit)
                Modulus:
                    00:dd:d5:2a:93:94:8e:d2:92:8c:27:ea:bd:ae:a9:
                    bc:e3:da:ac:22:86:99:61:00:d2:61:72:c8:b8:e6:
                    d1:fe:7d:ad:ad:1f:5a:7e:94:42:66:df:76:f8:6d:
                    4d:a2:d9:d1:dd:65:4e:be:12:b0:8a:05:84:dd:02:
                    a5:c1:1d:dd:55:13:a0:8c:0f:46:11:93:95:b7:db:
                    ee:d5:21:fe:37:d2:d6:07:6f:3b:04:47:f7:c4:2c:
                    bb:e6:3b:97:0e:27:dd:2f:2c:16:cb:5f:84:ec:4f:
                    a8:79:64:e9:ca:8d:22:00:f2:01:e3:18:29:96:23:
                    c7:2b:ed:68:bd:35:0f:97:19
                Exponent: 65537 (0x10001)
    Signature Algorithm: md5WithRSAEncryption
         86:a6:a4:d7:a9:c4:94:8c:1e:d6:94:dd:26:a2:42:a5:d9:4b:
         76:63:2c:78:8a:dd:9f:4e:13:d7:8e:d8:16:ce:8b:04:8e:44:
         2d:96:20:26:bb:da:d1:45:81:92:49:55:23:d2:a2:aa:43:4a:
         f5:0d:06:a1:26:3b:2f:77:51:30:7c:30:9d:cf:20:99:2f:a1:
         af:f9:07:36:29:79:43:8d:fc:1f:40:c7:35:29:4b:93:6d:60:
         e2:0c:67:0f:7a:11:fc:50:62:d6:f9:97:f1:ce:b8:a0:7a:81:
         28:6a:25:73:0c:6f:e9:a6:39:4a:2c:57:59:6e:34:f8:d1:c5:
         b9:c6
-----BEGIN CERTIFICATE-----
MIIC1TCCAj4CAQEwDQYJKoZIhvcNAQEEBQAwga0xCzAJBgNVBAYTAkZSMRYwFAYD
VQQIDA1JbGUgZGUgRnJhbmNlMQ4wDAYDVQQHDAVQYXJpczEcMBoGA1UECgwTTVNS
LUlOUklBIEpvaW50IExhYjEXMBUGA1UECwwOU2VjdXJpdHkgR3JvdXAxGTAXBgNV
BAMMEG5lZWRoYW0uaW5yaWEuZnIxJDAiBgkqhkiG9w0BCQEWFXJvb3RAbmVlZGhh
bS5pbnJpYS5mcjAeFw0xMjEwMDgxNDMwNDJaFw0yMDEyMjUxNDMwNDJaMIG3MQsw
CQYDVQQGEwJGUjEWMBQGA1UECAwNSWxlIGRlIEZyYW5jZTEOMAwGA1UEBwwFUGFy
aXMxHDAaBgNVBAoME01TUi1JTlJJQSBKb2ludCBMYWIxGTAXBgNVBAsMEENlcnRp
ZmljYXRlIDB4MDExITAfBgNVBAMMGGNlcnQtMDEubmVlZGhhbS5pbnJpYS5mcjEk
MCIGCSqGSIb3DQEJARYVcm9vdEBuZWVoZGFtLmlucmlhLmZyMIGfMA0GCSqGSIb3
DQEBAQUAA4GNADCBiQKBgQDd1SqTlI7Skown6r2uqbzj2qwihplhANJhcsi45tH+
fa2tH1p+lEJm33b4bU2i2dHdZU6+ErCKBYTdAqXBHd1VE6CMD0YRk5W32+7VIf43
0tYHbzsER/fELLvmO5cOJ90vLBbLX4TsT6h5ZOnKjSIA8gHjGCmWI8cr7Wi9NQ+X
GQIDAQABMA0GCSqGSIb3DQEBBAUAA4GBAIampNepxJSMHtaU3SaiQqXZS3ZjLHiK
3Z9OE9eO2BbOiwSORC2WICa72tFFgZJJVSPSoqpDSvUNBqEmOy93UTB8MJ3PIJkv
oa/5BzYpeUON/B9AxzUpS5NtYOIMZw96EfxQYtb5l/HOuKB6gShqJXMMb+mmOUos
V1luNPjRxbnG
-----END CERTIFICATE-----
